; Function Attrs: mustprogress uwtable
define void @_ZN4lean4nameC2ERKSt16initializer_listIPKcE(ptr noundef nonnull align 8 dereferenceable(8) initializes((0, 8)) %0, ptr noundef nonnull readonly align 8 captures(none) dereferenceable(16) %1) unnamed_addr #1 align 2 personality ptr @__gxx_personality_v0 {
  %3 = alloca %"class.lean::name", align 8
  %4 = alloca %"class.lean::name", align 8
  store ptr inttoptr (i64 1 to ptr), ptr %0, align 8, !tbaa !6
  %5 = getelementptr inbounds nuw i8, ptr %1, i64 8
  %6 = load i64, ptr %5, align 8, !tbaa !13
  %7 = icmp eq i64 %6, 0
  br i1 %7, label %.loopexit, label %8

8:                                                ; preds = %2
  %9 = load ptr, ptr %1, align 8, !tbaa !18
  call void @llvm.lifetime.start.p0(i64 8, ptr nonnull %3) #19
  %10 = load ptr, ptr %9, align 8, !tbaa !19
  invoke void @_ZN4lean4nameC2EPKc(ptr noundef nonnull align 8 dereferenceable(8) %3, ptr noundef %10)
          to label %11 unwind label %42

11:                                               ; preds = %8
  %12 = load ptr, ptr %0, align 8, !tbaa !6
  %13 = ptrtoint ptr %12 to i64
  %14 = and i64 %13, 1
  %.not.i.i.i = icmp eq i64 %14, 0
  br i1 %.not.i.i.i, label %15, label %_ZN4lean10object_refD2Ev.exit

15:                                               ; preds = %11
  %16 = load i32, ptr %12, align 4, !tbaa !9
  %17 = icmp sgt i32 %16, 1
  br i1 %17, label %18, label %20, !prof !12

18:                                               ; preds = %15
  %19 = add nsw i32 %16, -1
  store i32 %19, ptr %12, align 4, !tbaa !9
  br label %_ZN4lean10object_refD2Ev.exit

20:                                               ; preds = %15
  %.not.i.i.i.i = icmp eq i32 %16, 0
  br i1 %.not.i.i.i.i, label %_ZN4lean10object_refD2Ev.exit, label %21

21:                                               ; preds = %20
  invoke void @lean_dec_ref_cold(ptr noundef nonnull %12)
          to label %_ZN4lean10object_refD2Ev.exit unwind label %44

_ZN4lean10object_refD2Ev.exit:                    ; preds = %21, %11, %18, %20
  %22 = load ptr, ptr %3, align 8, !tbaa !6
  store ptr %22, ptr %0, align 8, !tbaa !6
  call void @llvm.lifetime.end.p0(i64 8, ptr nonnull %3) #19
  %.01327 = getelementptr inbounds nuw i8, ptr %9, i64 8
  %23 = load ptr, ptr %1, align 8, !tbaa !18
  %24 = load i64, ptr %5, align 8, !tbaa !13
  %25 = getelementptr inbounds nuw ptr, ptr %23, i64 %24
  %.not28 = icmp eq ptr %.01327, %25
  br i1 %.not28, label %.loopexit, label %.lr.ph

.lr.ph:                                           ; preds = %_ZN4lean10object_refD2Ev.exit, %_ZN4lean10object_refD2Ev.exit26
  %.01329 = phi ptr [ %.013, %_ZN4lean10object_refD2Ev.exit26 ], [ %.01327, %_ZN4lean10object_refD2Ev.exit ]
  call void @llvm.lifetime.start.p0(i64 8, ptr nonnull %4) #19
  %26 = load ptr, ptr %.01329, align 8, !tbaa !19
  invoke void @_ZN4lean4nameC1ERKS0_PKc(ptr noundef nonnull align 8 dereferenceable(8) %4, ptr noundef nonnull align 8 dereferenceable(8) %0, ptr noundef %26)
          to label %27 unwind label %47

27:                                               ; preds = %.lr.ph
  %28 = load ptr, ptr %0, align 8, !tbaa !6
  %29 = ptrtoint ptr %28 to i64
  %30 = and i64 %29, 1
  %.not.i.i.i20 = icmp eq i64 %30, 0
  br i1 %.not.i.i.i20, label %31, label %_ZN4lean10object_refD2Ev.exit26

31:                                               ; preds = %27
  %32 = load i32, ptr %28, align 4, !tbaa !9
  %33 = icmp sgt i32 %32, 1
  br i1 %33, label %34, label %36, !prof !12

34:                                               ; preds = %31
  %35 = add nsw i32 %32, -1
  store i32 %35, ptr %28, align 4, !tbaa !9
  br label %_ZN4lean10object_refD2Ev.exit26

36:                                               ; preds = %31
  %.not.i.i.i.i21 = icmp eq i32 %32, 0
  br i1 %.not.i.i.i.i21, label %_ZN4lean10object_refD2Ev.exit26, label %37

37:                                               ; preds = %36
  invoke void @lean_dec_ref_cold(ptr noundef nonnull %28)
          to label %_ZN4lean10object_refD2Ev.exit26 unwind label %49

_ZN4lean10object_refD2Ev.exit26:                  ; preds = %37, %27, %34, %36
  %38 = load ptr, ptr %4, align 8, !tbaa !6
  store ptr %38, ptr %0, align 8, !tbaa !6
  call void @llvm.lifetime.end.p0(i64 8, ptr nonnull %4) #19
  %.013 = getelementptr inbounds nuw i8, ptr %.01329, i64 8
  %39 = load ptr, ptr %1, align 8, !tbaa !18
  %40 = load i64, ptr %5, align 8, !tbaa !13
  %41 = getelementptr inbounds nuw ptr, ptr %39, i64 %40
  %.not = icmp eq ptr %.013, %41
  br i1 %.not, label %.loopexit, label %.lr.ph, !llvm.loop !21

42:                                               ; preds = %8
  %43 = landingpad { ptr, i32 }
          cleanup
  br label %46

44:                                               ; preds = %21
  %45 = landingpad { ptr, i32 }
          cleanup
  call void @_ZN4lean10object_refD2Ev(ptr noundef nonnull align 8 dereferenceable(8) %3) #19
  br label %46

46:                                               ; preds = %44, %42
  %.pn = phi { ptr, i32 } [ %45, %44 ], [ %43, %42 ]
  call void @llvm.lifetime.end.p0(i64 8, ptr nonnull %3) #19
  br label %52

47:                                               ; preds = %.lr.ph
  %48 = landingpad { ptr, i32 }
          cleanup
  br label %51

49:                                               ; preds = %37
  %50 = landingpad { ptr, i32 }
          cleanup
  call void @_ZN4lean10object_refD2Ev(ptr noundef nonnull align 8 dereferenceable(8) %4) #19
  br label %51

51:                                               ; preds = %49, %47
  %.pn15 = phi { ptr, i32 } [ %50, %49 ], [ %48, %47 ]
  call void @llvm.lifetime.end.p0(i64 8, ptr nonnull %4) #19
  br label %52

52:                                               ; preds = %51, %46
  %.pn15.pn = phi { ptr, i32 } [ %.pn15, %51 ], [ %.pn, %46 ]
  call void @_ZN4lean10object_refD2Ev(ptr noundef nonnull align 8 dereferenceable(8) %0) #19
  resume { ptr, i32 } %.pn15.pn

.loopexit:                                        ; preds = %_ZN4lean10object_refD2Ev.exit26, %_ZN4lean10object_refD2Ev.exit, %2
  ret void
}